target datalayout = "e-m:e-p270:32:32-p271:32:32-p272:64:64-i64:64-i128:128-f80:128-n8:16:32:64-S128"
target triple = "x86_64-pc-linux-gnu"

%"class.LIEF::ELF::DynamicEntry" = type { %"class.LIEF::Object", i64, i64 }
%"class.LIEF::Object" = type { ptr }

; Function Attrs: mustprogress nounwind uwtable
define linkonce_odr hidden noundef i64 @_ZNK4LIEF3ELF12DynamicEntry5valueEv(ptr noundef nonnull align 8 dereferenceable(24) %0) #1 comdat align 2 {
  %2 = alloca ptr, align 8
  store ptr %0, ptr %2, align 8, !tbaa !12
  %3 = load ptr, ptr %2, align 8
  %4 = getelementptr inbounds nuw %"class.LIEF::ELF::DynamicEntry", ptr %3, i32 0, i32 2
  %5 = load i64, ptr %4, align 8, !tbaa !18
  ret i64 %5
}

; Function Attrs: mustprogress nounwind uwtable
define linkonce_odr hidden noundef i64 @_ZNK4LIEF3ELF12DynamicEntry3tagEv(ptr noundef nonnull align 8 dereferenceable(24) %0) #1 comdat align 2 {
  %2 = alloca ptr, align 8
  store ptr %0, ptr %2, align 8, !tbaa !12
  %3 = load ptr, ptr %2, align 8
  %4 = getelementptr inbounds nuw %"class.LIEF::ELF::DynamicEntry", ptr %3, i32 0, i32 1
  %5 = load i64, ptr %4, align 8, !tbaa !14
  ret i64 %5
}

; Function Attrs: mustprogress nounwind uwtable
define noundef zeroext i1 @_ZNK4LIEF3ELF17DynamicEntryFlags3hasENS1_4FLAGE(ptr noundef nonnull align 8 dereferenceable(24) %0, i64 noundef %1) #1 align 2 {
  %3 = alloca i1, align 1
  %4 = alloca ptr, align 8
  %5 = alloca i64, align 8
  %6 = alloca i64, align 8
  %7 = alloca i32, align 4
  %8 = alloca i64, align 8
  store ptr %0, ptr %4, align 8, !tbaa !3
  store i64 %1, ptr %5, align 8, !tbaa !8
  %9 = load ptr, ptr %4, align 8
  %10 = call noundef i64 @_ZNK4LIEF3ELF12DynamicEntry3tagEv(ptr noundef nonnull align 8 dereferenceable(24) %9)
  %11 = icmp eq i64 %10, 30
  br i1 %11, label %12, label %23

12:                                               ; preds = %2
  call void @llvm.lifetime.start.p0(i64 8, ptr %6) #16
  %13 = load i64, ptr %5, align 8, !tbaa !8
  store i64 %13, ptr %6, align 8, !tbaa !10
  %14 = load i64, ptr %6, align 8, !tbaa !10
  %15 = icmp ule i64 4294967296, %14
  br i1 %15, label %16, label %17

16:                                               ; preds = %12
  store i1 false, ptr %3, align 1
  store i32 1, ptr %7, align 4
  br label %22

17:                                               ; preds = %12
  %18 = call noundef i64 @_ZNK4LIEF3ELF12DynamicEntry5valueEv(ptr noundef nonnull align 8 dereferenceable(24) %9)
  %19 = load i64, ptr %6, align 8, !tbaa !10
  %20 = and i64 %18, %19
  %21 = icmp ugt i64 %20, 0
  store i1 %21, ptr %3, align 1
  store i32 1, ptr %7, align 4
  br label %22

22:                                               ; preds = %17, %16
  call void @llvm.lifetime.end.p0(i64 8, ptr %6) #16
  br label %40

23:                                               ; preds = %2
  %24 = call noundef i64 @_ZNK4LIEF3ELF12DynamicEntry3tagEv(ptr noundef nonnull align 8 dereferenceable(24) %9)
  %25 = icmp eq i64 %24, 1879048187
  br i1 %25, label %26, label %39

26:                                               ; preds = %23
  call void @llvm.lifetime.start.p0(i64 8, ptr %8) #16
  %27 = load i64, ptr %5, align 8, !tbaa !8
  store i64 %27, ptr %8, align 8, !tbaa !10
  %28 = load i64, ptr %8, align 8, !tbaa !10
  %29 = icmp ult i64 %28, 4294967296
  br i1 %29, label %30, label %31

30:                                               ; preds = %26
  store i1 false, ptr %3, align 1
  store i32 1, ptr %7, align 4
  br label %38

31:                                               ; preds = %26
  %32 = load i64, ptr %8, align 8, !tbaa !10
  %33 = sub i64 %32, 4294967296
  store i64 %33, ptr %8, align 8, !tbaa !10
  %34 = call noundef i64 @_ZNK4LIEF3ELF12DynamicEntry5valueEv(ptr noundef nonnull align 8 dereferenceable(24) %9)
  %35 = load i64, ptr %8, align 8, !tbaa !10
  %36 = and i64 %34, %35
  %37 = icmp ugt i64 %36, 0
  store i1 %37, ptr %3, align 1
  store i32 1, ptr %7, align 4
  br label %38

38:                                               ; preds = %31, %30
  call void @llvm.lifetime.end.p0(i64 8, ptr %8) #16
  br label %40

39:                                               ; preds = %23
  store i1 false, ptr %3, align 1
  br label %40

40:                                               ; preds = %39, %38, %22
  %41 = load i1, ptr %3, align 1
  ret i1 %41
}