; Function Attrs: mustprogress nofree norecurse nosync nounwind willreturn memory(argmem: read) uwtable
define noundef zeroext i1 @_ZNK4LIEF3ELF17DynamicEntryFlags3hasENS1_4FLAGE(ptr noundef nonnull readonly align 8 captures(none) dereferenceable(24) %0, i64 noundef %1) local_unnamed_addr #1 align 2 {
  %3 = getelementptr inbounds nuw i8, ptr %0, i64 8
  %4 = load i64, ptr %3, align 8, !tbaa !3
  %5 = icmp eq i64 %4, 30
  br i1 %5, label %6, label %13

6:                                                ; preds = %2
  %7 = icmp ugt i64 %1, 4294967295
  br i1 %7, label %22, label %8

8:                                                ; preds = %6
  %9 = getelementptr inbounds nuw i8, ptr %0, i64 16
  %10 = load i64, ptr %9, align 8, !tbaa !10
  %11 = and i64 %10, %1
  %12 = icmp ne i64 %11, 0
  br label %22

13:                                               ; preds = %2
  %14 = icmp ne i64 %4, 1879048187
  %15 = icmp ult i64 %1, 4294967296
  %or.cond = or i1 %15, %14
  br i1 %or.cond, label %22, label %16

16:                                               ; preds = %13
  %17 = add i64 %1, -4294967296
  %18 = getelementptr inbounds nuw i8, ptr %0, i64 16
  %19 = load i64, ptr %18, align 8, !tbaa !10
  %20 = and i64 %19, %17
  %21 = icmp ne i64 %20, 0
  br label %22

22:                                               ; preds = %13, %16, %8, %6
  %.1 = phi i1 [ %12, %8 ], [ false, %6 ], [ %21, %16 ], [ false, %13 ]
  ret i1 %.1
}